; Function Attrs: mustprogress nofree norecurse nosync nounwind willreturn memory(argmem: read) uwtable
define noundef ptr @_ZNK5arrow22FixedSizeBinaryBuilder8GetValueEl(ptr nocapture noundef nonnull readonly align 8 dereferenceable(208) %this, i64 noundef %i) local_unnamed_addr #5 align 2 {
entry:
  %data_.i = getelementptr inbounds i8, ptr %this, i64 176
  %0 = load ptr, ptr %data_.i, align 8
  %byte_width_ = getelementptr inbounds i8, ptr %this, i64 144
  %1 = load i32, ptr %byte_width_, align 8
  %conv = sext i32 %1 to i64
  %mul = mul nsw i64 %conv, %i
  %add.ptr = getelementptr inbounds i8, ptr %0, i64 %mul
  ret ptr %add.ptr
}